target datalayout = "e-m:e-p270:32:32-p271:32:32-p272:64:64-i64:64-i128:128-f80:128-n8:16:32:64-S128"
target triple = "x86_64-pc-linux-gnu"

@.str.11 = private unnamed_addr constant [37 x i8] c"../openssl/test/rsa_sp800_56b_test.c\00", align 1
@.str.43 = private unnamed_addr constant [16 x i8] c"key = RSA_new()\00", align 1
@.str.89 = private unnamed_addr constant [38 x i8] c"ossl_rsa_sp800_56b_check_private(key)\00", align 1
@.str.95 = private unnamed_addr constant [37 x i8] c"ossl_rsa_sp800_56b_check_public(key)\00", align 1
@keygen_size = internal global [2 x i32] [i32 2048, i32 3072], align 4
@.str.127 = private unnamed_addr constant [53 x i8] c"ossl_rsa_sp800_56b_generate_key(key, sz, NULL, NULL)\00", align 1
@.str.128 = private unnamed_addr constant [52 x i8] c"ossl_rsa_sp800_56b_check_keypair(key, NULL, -1, sz)\00", align 1

; Function Attrs: nounwind uwtable
define internal i32 @test_sp80056b_keygen(i32 noundef %0) #0 {
  %2 = alloca i32, align 4
  %3 = alloca ptr, align 8
  %4 = alloca i32, align 4
  %5 = alloca i32, align 4
  store i32 %0, ptr %2, align 4, !tbaa !4
  call void @llvm.lifetime.start.p0(i64 8, ptr %3) #3
  store ptr null, ptr %3, align 8, !tbaa !13
  call void @llvm.lifetime.start.p0(i64 4, ptr %4) #3
  call void @llvm.lifetime.start.p0(i64 4, ptr %5) #3
  %6 = load i32, ptr %2, align 4, !tbaa !4
  %7 = sext i32 %6 to i64
  %8 = getelementptr inbounds [2 x i32], ptr @keygen_size, i64 0, i64 %7
  %9 = load i32, ptr %8, align 4, !tbaa !4
  store i32 %9, ptr %5, align 4, !tbaa !4
  %10 = call ptr @RSA_new()
  store ptr %10, ptr %3, align 8, !tbaa !13
  %11 = call i32 @test_ptr(ptr noundef @.str.11, i32 noundef 493, ptr noundef @.str.43, ptr noundef %10)
  %12 = icmp ne i32 %11, 0
  br i1 %12, label %13, label %43

13:                                               ; preds = %1
  %14 = load ptr, ptr %3, align 8, !tbaa !13
  %15 = load i32, ptr %5, align 4, !tbaa !4
  %16 = call i32 @ossl_rsa_sp800_56b_generate_key(ptr noundef %14, i32 noundef %15, ptr noundef null, ptr noundef null)
  %17 = icmp ne i32 %16, 0
  %18 = zext i1 %17 to i32
  %19 = call i32 @test_true(ptr noundef @.str.11, i32 noundef 494, ptr noundef @.str.127, i32 noundef %18)
  %20 = icmp ne i32 %19, 0
  br i1 %20, label %21, label %43

21:                                               ; preds = %13
  %22 = load ptr, ptr %3, align 8, !tbaa !13
  %23 = call i32 @ossl_rsa_sp800_56b_check_public(ptr noundef %22)
  %24 = icmp ne i32 %23, 0
  %25 = zext i1 %24 to i32
  %26 = call i32 @test_true(ptr noundef @.str.11, i32 noundef 495, ptr noundef @.str.95, i32 noundef %25)
  %27 = icmp ne i32 %26, 0
  br i1 %27, label %28, label %43

28:                                               ; preds = %21
  %29 = load ptr, ptr %3, align 8, !tbaa !13
  %30 = call i32 @ossl_rsa_sp800_56b_check_private(ptr noundef %29)
  %31 = icmp ne i32 %30, 0
  %32 = zext i1 %31 to i32
  %33 = call i32 @test_true(ptr noundef @.str.11, i32 noundef 496, ptr noundef @.str.89, i32 noundef %32)
  %34 = icmp ne i32 %33, 0
  br i1 %34, label %35, label %43

35:                                               ; preds = %28
  %36 = load ptr, ptr %3, align 8, !tbaa !13
  %37 = load i32, ptr %5, align 4, !tbaa !4
  %38 = call i32 @ossl_rsa_sp800_56b_check_keypair(ptr noundef %36, ptr noundef null, i32 noundef -1, i32 noundef %37)
  %39 = icmp ne i32 %38, 0
  %40 = zext i1 %39 to i32
  %41 = call i32 @test_true(ptr noundef @.str.11, i32 noundef 497, ptr noundef @.str.128, i32 noundef %40)
  %42 = icmp ne i32 %41, 0
  br label %43

43:                                               ; preds = %35, %28, %21, %13, %1
  %44 = phi i1 [ false, %28 ], [ false, %21 ], [ false, %13 ], [ false, %1 ], [ %42, %35 ]
  %45 = zext i1 %44 to i32
  store i32 %45, ptr %4, align 4, !tbaa !4
  %46 = load ptr, ptr %3, align 8, !tbaa !13
  call void @RSA_free(ptr noundef %46)
  %47 = load i32, ptr %4, align 4, !tbaa !4
  call void @llvm.lifetime.end.p0(i64 4, ptr %5) #3
  call void @llvm.lifetime.end.p0(i64 4, ptr %4) #3
  call void @llvm.lifetime.end.p0(i64 8, ptr %3) #3
  ret i32 %47
}