; Function Attrs: nounwind uwtable
define internal range(i32 0, 2) i32 @test_sp80056b_keygen(i32 noundef %0) #0 {
  %2 = sext i32 %0 to i64
  %3 = getelementptr inbounds [2 x i32], ptr @keygen_size, i64 0, i64 %2
  %4 = load i32, ptr %3, align 4, !tbaa !29
  %5 = tail call ptr @RSA_new() #2
  %6 = tail call i32 @test_ptr(ptr noundef nonnull @.str.11, i32 noundef 493, ptr noundef nonnull @.str.43, ptr noundef %5) #2
  %.not = icmp eq i32 %6, 0
  br i1 %.not, label %29, label %7

7:                                                ; preds = %1
  %8 = tail call i32 @ossl_rsa_sp800_56b_generate_key(ptr noundef %5, i32 noundef %4, ptr noundef null, ptr noundef null) #2
  %9 = icmp ne i32 %8, 0
  %10 = zext i1 %9 to i32
  %11 = tail call i32 @test_true(ptr noundef nonnull @.str.11, i32 noundef 494, ptr noundef nonnull @.str.127, i32 noundef %10) #2
  %.not8 = icmp eq i32 %11, 0
  br i1 %.not8, label %29, label %12

12:                                               ; preds = %7
  %13 = tail call i32 @ossl_rsa_sp800_56b_check_public(ptr noundef %5) #2
  %14 = icmp ne i32 %13, 0
  %15 = zext i1 %14 to i32
  %16 = tail call i32 @test_true(ptr noundef nonnull @.str.11, i32 noundef 495, ptr noundef nonnull @.str.95, i32 noundef %15) #2
  %.not9 = icmp eq i32 %16, 0
  br i1 %.not9, label %29, label %17

17:                                               ; preds = %12
  %18 = tail call i32 @ossl_rsa_sp800_56b_check_private(ptr noundef %5) #2
  %19 = icmp ne i32 %18, 0
  %20 = zext i1 %19 to i32
  %21 = tail call i32 @test_true(ptr noundef nonnull @.str.11, i32 noundef 496, ptr noundef nonnull @.str.89, i32 noundef %20) #2
  %.not10 = icmp eq i32 %21, 0
  br i1 %.not10, label %29, label %22

22:                                               ; preds = %17
  %23 = tail call i32 @ossl_rsa_sp800_56b_check_keypair(ptr noundef %5, ptr noundef null, i32 noundef -1, i32 noundef %4) #2
  %24 = icmp ne i32 %23, 0
  %25 = zext i1 %24 to i32
  %26 = tail call i32 @test_true(ptr noundef nonnull @.str.11, i32 noundef 497, ptr noundef nonnull @.str.128, i32 noundef %25) #2
  %27 = icmp ne i32 %26, 0
  %28 = zext i1 %27 to i32
  br label %29

29:                                               ; preds = %22, %17, %12, %7, %1
  %30 = phi i32 [ 0, %17 ], [ 0, %12 ], [ 0, %7 ], [ 0, %1 ], [ %28, %22 ]
  tail call void @RSA_free(ptr noundef %5) #2
  ret i32 %30
}